; Function Attrs: nounwind sspstrong uwtable
define internal fastcc i32 @m_local_jd(ptr noundef captures(none) %0) unnamed_addr #0 {
  %2 = load i32, ptr %0, align 8, !tbaa !47
  %3 = and i32 %2, 128
  %.not = icmp eq i32 %3, 0
  br i1 %.not, label %4, label %45

4:                                                ; preds = %1
  %5 = and i32 %2, 1
  %.not.i = icmp eq i32 %5, 0
  br i1 %.not.i, label %6, label %.get_s_jd.exit_crit_edge

.get_s_jd.exit_crit_edge:                         ; preds = %4
  %.phi.trans.insert11 = getelementptr inbounds nuw i8, ptr %0, i64 4
  %.pre12 = load i32, ptr %.phi.trans.insert11, align 4, !tbaa !47
  br label %get_s_jd.exit

6:                                                ; preds = %4
  %7 = getelementptr inbounds nuw i8, ptr %0, i64 20
  %8 = load i32, ptr %7, align 4, !tbaa !47
  %9 = getelementptr inbounds nuw i8, ptr %0, i64 24
  %10 = load i32, ptr %9, align 8, !tbaa !47
  %11 = lshr i32 %10, 22
  %12 = and i32 %11, 15
  %13 = lshr i32 %10, 17
  %14 = and i32 %13, 31
  %15 = tail call fastcc double @s_virtual_sg(ptr noundef nonnull %0)
  %16 = icmp samesign ult i32 %12, 3
  %17 = add nuw nsw i32 %12, 12
  %.018.i.i = select i1 %16, i32 %17, i32 %12
  %18 = sext i1 %16 to i32
  %.017.i.i = add nsw i32 %8, %18
  %19 = sitofp i32 %.017.i.i to double
  %20 = fdiv double %19, 1.000000e+02
  %21 = tail call double @llvm.floor.f64(double %20)
  %22 = fsub double 2.000000e+00, %21
  %23 = fmul double %21, 2.500000e-01
  %24 = tail call double @llvm.floor.f64(double %23)
  %25 = fadd double %22, %24
  %26 = add nsw i32 %.017.i.i, 4716
  %27 = sitofp i32 %26 to double
  %28 = fmul double %27, 3.652500e+02
  %29 = tail call double @llvm.floor.f64(double %28)
  %30 = add nuw nsw i32 %.018.i.i, 1
  %31 = uitofp nneg i32 %30 to double
  %32 = fmul double %31, 3.060010e+01
  %33 = tail call double @llvm.floor.f64(double %32)
  %34 = fadd double %33, %29
  %35 = uitofp nneg i32 %14 to double
  %36 = fadd double %34, %35
  %37 = fadd double %36, %25
  %38 = fadd double %37, -1.524000e+03
  %39 = fcmp uge double %38, %15
  %40 = fsub double %38, %25
  %.0.i.i = select i1 %39, double %38, double %40
  %41 = fptosi double %.0.i.i to i32
  %42 = getelementptr inbounds nuw i8, ptr %0, i64 4
  store i32 %41, ptr %42, align 4, !tbaa !47
  %43 = load i32, ptr %0, align 8, !tbaa !47
  %44 = or i32 %43, 1
  store i32 %44, ptr %0, align 8, !tbaa !47
  br label %get_s_jd.exit

45:                                               ; preds = %1
  tail call fastcc void @get_c_jd(ptr noundef nonnull %0)
  %46 = load i32, ptr %0, align 8, !tbaa !47
  %47 = and i32 %46, 2
  %.not.i6 = icmp eq i32 %47, 0
  br i1 %.not.i6, label %48, label %.get_c_df.exit_crit_edge

.get_c_df.exit_crit_edge:                         ; preds = %45
  %.phi.trans.insert = getelementptr inbounds nuw i8, ptr %0, i64 28
  %.pre = load i32, ptr %.phi.trans.insert, align 4, !tbaa !47
  %.phi.trans.insert9 = getelementptr inbounds nuw i8, ptr %0, i64 32
  %.pre10 = load i32, ptr %.phi.trans.insert9, align 8, !tbaa !47
  br label %get_c_df.exit

48:                                               ; preds = %45
  %49 = getelementptr inbounds nuw i8, ptr %0, i64 24
  %50 = load i32, ptr %49, align 8, !tbaa !47
  %51 = lshr i32 %50, 12
  %52 = and i32 %51, 31
  %53 = lshr i32 %50, 6
  %54 = and i32 %53, 63
  %55 = and i32 %50, 63
  %56 = mul nuw nsw i32 %52, 3600
  %57 = mul nuw nsw i32 %54, 60
  %58 = getelementptr inbounds nuw i8, ptr %0, i64 32
  %59 = load i32, ptr %58, align 8, !tbaa !47
  %60 = sub i32 %55, %59
  %61 = add i32 %60, %56
  %62 = add i32 %61, %57
  %63 = icmp slt i32 %62, 0
  %64 = add nsw i32 %62, 86400
  %65 = icmp samesign ugt i32 %62, 86399
  %66 = add nsw i32 %62, -86400
  %spec.select.i.i = select i1 %65, i32 %66, i32 %62
  %.0.i.i7 = select i1 %63, i32 %64, i32 %spec.select.i.i
  %67 = getelementptr inbounds nuw i8, ptr %0, i64 28
  store i32 %.0.i.i7, ptr %67, align 4, !tbaa !47
  %68 = or disjoint i32 %46, 2
  store i32 %68, ptr %0, align 8, !tbaa !47
  br label %get_c_df.exit

get_c_df.exit:                                    ; preds = %.get_c_df.exit_crit_edge, %48
  %69 = phi i32 [ %.pre10, %.get_c_df.exit_crit_edge ], [ %59, %48 ]
  %70 = phi i32 [ %.pre, %.get_c_df.exit_crit_edge ], [ %.0.i.i7, %48 ]
  %71 = getelementptr inbounds nuw i8, ptr %0, i64 4
  %72 = load i32, ptr %71, align 4, !tbaa !47
  %73 = add nsw i32 %69, %70
  %74 = icmp samesign ugt i32 %73, 86399
  %75 = zext i1 %74 to i32
  %.inv.i.i = icmp sgt i32 %73, -1
  %.0.v.i.i = select i1 %.inv.i.i, i32 %75, i32 -1
  %.0.i.i8 = add nsw i32 %.0.v.i.i, %72
  br label %get_s_jd.exit

get_s_jd.exit:                                    ; preds = %6, %.get_s_jd.exit_crit_edge, %get_c_df.exit
  %.0 = phi i32 [ %.0.i.i8, %get_c_df.exit ], [ %.pre12, %.get_s_jd.exit_crit_edge ], [ %41, %6 ]
  ret i32 %.0
}